; Function Attrs: inlinehint mustprogress nofree norecurse nosync nounwind memory(argmem: readwrite) uwtable
define internal fastcc void @_ZN5Eigen8internal6ColamdL14order_childrenIiEEvT_PNS1_12ColStructureIS3_EEPS3_(i32 noundef range(i32 0, -2147483648) %0, ptr noundef nonnull captures(none) %1, ptr noundef nonnull writeonly captures(none) %2) unnamed_addr #23 {
  %.not = icmp eq i32 %0, 0
  br i1 %.not, label %._crit_edge, label %.lr.ph.preheader

.lr.ph.preheader:                                 ; preds = %3
  %wide.trip.count = zext nneg i32 %0 to i64
  br label %.lr.ph

.lr.ph43.preheader:                               ; preds = %31
  %wide.trip.count51 = zext nneg i32 %0 to i64
  br label %.lr.ph43

.lr.ph:                                           ; preds = %.lr.ph.preheader, %31
  %indvars.iv = phi i64 [ 0, %.lr.ph.preheader ], [ %indvars.iv.next, %31 ]
  %4 = getelementptr inbounds nuw %"struct.Eigen::internal::Colamd::ColStructure", ptr %1, i64 %indvars.iv
  %5 = load i32, ptr %4, align 4, !tbaa !300
  %6 = icmp eq i32 %5, -1
  br i1 %6, label %31, label %7

7:                                                ; preds = %.lr.ph
  %8 = getelementptr inbounds nuw i8, ptr %4, i64 12
  %9 = load i32, ptr %8, align 4, !tbaa !49
  %10 = icmp eq i32 %9, -1
  br i1 %10, label %.preheader38.preheader, label %31

.preheader38.preheader:                           ; preds = %7
  %11 = trunc nuw nsw i64 %indvars.iv to i32
  br label %.preheader38

.preheader38:                                     ; preds = %.preheader38.preheader, %.preheader38
  %.034 = phi i32 [ %14, %.preheader38 ], [ %11, %.preheader38.preheader ]
  %12 = sext i32 %.034 to i64
  %13 = getelementptr inbounds %"struct.Eigen::internal::Colamd::ColStructure", ptr %1, i64 %12, i32 2
  %14 = load i32, ptr %13, align 4, !tbaa !49
  %15 = sext i32 %14 to i64
  %16 = getelementptr inbounds %"struct.Eigen::internal::Colamd::ColStructure", ptr %1, i64 %15
  %17 = load i32, ptr %16, align 4, !tbaa !300
  %18 = icmp eq i32 %17, -1
  br i1 %18, label %19, label %.preheader38, !llvm.loop !346

19:                                               ; preds = %.preheader38
  %20 = getelementptr inbounds nuw i8, ptr %16, i64 12
  %21 = load i32, ptr %20, align 4, !tbaa !49
  br label %22

22:                                               ; preds = %22, %19
  %.035 = phi i32 [ %11, %19 ], [ %14, %22 ]
  %.0 = phi i32 [ %21, %19 ], [ %23, %22 ]
  %23 = add nsw i32 %.0, 1
  %24 = sext i32 %.035 to i64
  %25 = getelementptr inbounds %"struct.Eigen::internal::Colamd::ColStructure", ptr %1, i64 %24
  %26 = getelementptr inbounds nuw i8, ptr %25, i64 12
  store i32 %.0, ptr %26, align 4, !tbaa !49
  %27 = getelementptr inbounds nuw i8, ptr %25, i64 8
  store i32 %14, ptr %27, align 4, !tbaa !49
  %28 = load i32, ptr %20, align 4, !tbaa !49
  %29 = icmp eq i32 %28, -1
  br i1 %29, label %22, label %30, !llvm.loop !347

30:                                               ; preds = %22
  store i32 %23, ptr %20, align 4, !tbaa !49
  br label %31

31:                                               ; preds = %.lr.ph, %7, %30
  %indvars.iv.next = add nuw nsw i64 %indvars.iv, 1
  %exitcond.not = icmp eq i64 %indvars.iv.next, %wide.trip.count
  br i1 %exitcond.not, label %.lr.ph43.preheader, label %.lr.ph, !llvm.loop !348

.lr.ph43:                                         ; preds = %.lr.ph43.preheader, %.lr.ph43
  %indvars.iv48 = phi i64 [ 0, %.lr.ph43.preheader ], [ %indvars.iv.next49, %.lr.ph43 ]
  %32 = getelementptr inbounds nuw %"struct.Eigen::internal::Colamd::ColStructure", ptr %1, i64 %indvars.iv48, i32 3
  %33 = load i32, ptr %32, align 4, !tbaa !49
  %34 = sext i32 %33 to i64
  %35 = getelementptr inbounds i32, ptr %2, i64 %34
  %36 = trunc nuw nsw i64 %indvars.iv48 to i32
  store i32 %36, ptr %35, align 4, !tbaa !97
  %indvars.iv.next49 = add nuw nsw i64 %indvars.iv48, 1
  %exitcond52.not = icmp eq i64 %indvars.iv.next49, %wide.trip.count51
  br i1 %exitcond52.not, label %._crit_edge, label %.lr.ph43, !llvm.loop !349

._crit_edge:                                      ; preds = %.lr.ph43, %3
  ret void
}